; Function Attrs: mustprogress uwtable
define internal fastcc void @_ZN8tinygltfL9MimeToExtERKNSt7__cxx1112basic_stringIcSt11char_traitsIcESaIcEEE(ptr dead_on_unwind noalias writable align 8 %0, ptr noundef nonnull align 8 dereferenceable(32) %1) unnamed_addr #3 personality ptr @__gxx_personality_v0 {
  %3 = alloca %"class.std::allocator", align 1
  %4 = alloca %"class.std::allocator", align 1
  %5 = alloca %"class.std::allocator", align 1
  %6 = alloca %"class.std::allocator", align 1
  %7 = alloca %"class.std::allocator", align 1
  %8 = tail call noundef i32 @_ZNKSt7__cxx1112basic_stringIcSt11char_traitsIcESaIcEE7compareEPKc(ptr noundef nonnull align 8 dereferenceable(32) %1, ptr noundef nonnull @.str.18) #30
  %9 = icmp eq i32 %8, 0
  br i1 %9, label %10, label %13

10:                                               ; preds = %2
  call void @_ZNSaIcEC1Ev(ptr noundef nonnull align 1 dereferenceable(1) %3) #30
  invoke void @_ZNSt7__cxx1112basic_stringIcSt11char_traitsIcESaIcEEC1EPKcRKS3_(ptr noundef nonnull align 8 dereferenceable(32) %0, ptr noundef nonnull @.str.243, ptr noundef nonnull align 1 dereferenceable(1) %3)
          to label %34 unwind label %11

11:                                               ; preds = %10
  %12 = landingpad { ptr, i32 }
          cleanup
  br label %35

13:                                               ; preds = %2
  %14 = tail call noundef i32 @_ZNKSt7__cxx1112basic_stringIcSt11char_traitsIcESaIcEE7compareEPKc(ptr noundef nonnull align 8 dereferenceable(32) %1, ptr noundef nonnull @.str.19) #30
  %15 = icmp eq i32 %14, 0
  br i1 %15, label %16, label %19

16:                                               ; preds = %13
  call void @_ZNSaIcEC1Ev(ptr noundef nonnull align 1 dereferenceable(1) %4) #30
  invoke void @_ZNSt7__cxx1112basic_stringIcSt11char_traitsIcESaIcEEC1EPKcRKS3_(ptr noundef nonnull align 8 dereferenceable(32) %0, ptr noundef nonnull @.str.244, ptr noundef nonnull align 1 dereferenceable(1) %4)
          to label %34 unwind label %17

17:                                               ; preds = %16
  %18 = landingpad { ptr, i32 }
          cleanup
  br label %35

19:                                               ; preds = %13
  %20 = tail call noundef i32 @_ZNKSt7__cxx1112basic_stringIcSt11char_traitsIcESaIcEE7compareEPKc(ptr noundef nonnull align 8 dereferenceable(32) %1, ptr noundef nonnull @.str.20) #30
  %21 = icmp eq i32 %20, 0
  br i1 %21, label %22, label %25

22:                                               ; preds = %19
  call void @_ZNSaIcEC1Ev(ptr noundef nonnull align 1 dereferenceable(1) %5) #30
  invoke void @_ZNSt7__cxx1112basic_stringIcSt11char_traitsIcESaIcEEC1EPKcRKS3_(ptr noundef nonnull align 8 dereferenceable(32) %0, ptr noundef nonnull @.str.245, ptr noundef nonnull align 1 dereferenceable(1) %5)
          to label %34 unwind label %23

23:                                               ; preds = %22
  %24 = landingpad { ptr, i32 }
          cleanup
  br label %35

25:                                               ; preds = %19
  %26 = tail call noundef i32 @_ZNKSt7__cxx1112basic_stringIcSt11char_traitsIcESaIcEE7compareEPKc(ptr noundef nonnull align 8 dereferenceable(32) %1, ptr noundef nonnull @.str.21) #30
  %27 = icmp eq i32 %26, 0
  br i1 %27, label %28, label %31

28:                                               ; preds = %25
  call void @_ZNSaIcEC1Ev(ptr noundef nonnull align 1 dereferenceable(1) %6) #30
  invoke void @_ZNSt7__cxx1112basic_stringIcSt11char_traitsIcESaIcEEC1EPKcRKS3_(ptr noundef nonnull align 8 dereferenceable(32) %0, ptr noundef nonnull @.str.246, ptr noundef nonnull align 1 dereferenceable(1) %6)
          to label %34 unwind label %29

29:                                               ; preds = %28
  %30 = landingpad { ptr, i32 }
          cleanup
  br label %35

31:                                               ; preds = %25
  call void @_ZNSaIcEC1Ev(ptr noundef nonnull align 1 dereferenceable(1) %7) #30
  invoke void @_ZNSt7__cxx1112basic_stringIcSt11char_traitsIcESaIcEEC1EPKcRKS3_(ptr noundef nonnull align 8 dereferenceable(32) %0, ptr noundef nonnull @.str.3, ptr noundef nonnull align 1 dereferenceable(1) %7)
          to label %34 unwind label %32

32:                                               ; preds = %31
  %33 = landingpad { ptr, i32 }
          cleanup
  br label %35

34:                                               ; preds = %31, %28, %22, %16, %10
  %.sink = phi ptr [ %3, %10 ], [ %4, %16 ], [ %5, %22 ], [ %6, %28 ], [ %7, %31 ]
  call void @_ZNSaIcED1Ev(ptr noundef nonnull align 1 dereferenceable(1) %.sink) #30
  ret void

35:                                               ; preds = %32, %29, %23, %17, %11
  %.sink7 = phi ptr [ %7, %32 ], [ %6, %29 ], [ %5, %23 ], [ %4, %17 ], [ %3, %11 ]
  %.pn = phi { ptr, i32 } [ %33, %32 ], [ %30, %29 ], [ %24, %23 ], [ %18, %17 ], [ %12, %11 ]
  call void @_ZNSaIcED1Ev(ptr noundef nonnull align 1 dereferenceable(1) %.sink7) #30
  resume { ptr, i32 } %.pn
}